target datalayout = "e-m:e-p270:32:32-p271:32:32-p272:64:64-i64:64-i128:128-f80:128-n8:16:32:64-S128"
target triple = "x86_64-pc-linux-gnu"

%"class.colvarmodule::rvector" = type { double, double, double }
%"class.colvarmodule::atom" = type { i32, i32, double, double, %"class.colvarmodule::rvector", %"class.colvarmodule::rvector", %"class.colvarmodule::rvector", %"class.colvarmodule::rvector" }

@_ZN12colvarmodule5proxyE = external global ptr, align 8

; Function Attrs: mustprogress nounwind uwtable
define void @_ZN12colvarmodule4atomD2Ev(ptr noundef nonnull align 8 dereferenceable(120) %0) unnamed_addr #1 align 2 personality ptr @__gxx_personality_v0 {
  %2 = alloca ptr, align 8
  store ptr %0, ptr %2, align 8
  %3 = load ptr, ptr %2, align 8
  %4 = getelementptr inbounds %"class.colvarmodule::atom", ptr %3, i32 0, i32 0
  %5 = load i32, ptr %4, align 8
  %6 = icmp sge i32 %5, 0
  br i1 %6, label %7, label %18

7:                                                ; preds = %1
  %8 = invoke noundef ptr @_ZN12colvarmodule4mainEv()
          to label %9 unwind label %19

9:                                                ; preds = %7
  %10 = load ptr, ptr @_ZN12colvarmodule5proxyE, align 8
  %11 = getelementptr inbounds i8, ptr %10, i64 256
  %12 = getelementptr inbounds %"class.colvarmodule::atom", ptr %3, i32 0, i32 0
  %13 = load i32, ptr %12, align 8
  %14 = load ptr, ptr %11, align 8
  %15 = getelementptr inbounds ptr, ptr %14, i64 7
  %16 = load ptr, ptr %15, align 8
  invoke void %16(ptr noundef nonnull align 8 dereferenceable(199) %11, i32 noundef %13)
          to label %17 unwind label %19

17:                                               ; preds = %9
  br label %18

18:                                               ; preds = %17, %1
  ret void

19:                                               ; preds = %9, %7
  %20 = landingpad { ptr, i32 }
          catch ptr null
  %21 = extractvalue { ptr, i32 } %20, 0
  call void @__clang_call_terminate(ptr %21) #18
  unreachable
}