; Function Attrs: mustprogress nounwind uwtable
define void @_ZN12colvarmodule4atomD2Ev(ptr nocapture noundef nonnull readonly align 8 dereferenceable(120) %0) unnamed_addr #1 align 2 personality ptr @__gxx_personality_v0 {
  %2 = load i32, ptr %0, align 8
  %3 = icmp sgt i32 %2, -1
  br i1 %3, label %4, label %13

4:                                                ; preds = %1
  %5 = invoke noundef ptr @_ZN12colvarmodule4mainEv()
          to label %6 unwind label %14

6:                                                ; preds = %4
  %7 = load ptr, ptr @_ZN12colvarmodule5proxyE, align 8
  %8 = getelementptr inbounds i8, ptr %7, i64 256
  %9 = load i32, ptr %0, align 8
  %10 = load ptr, ptr %8, align 8
  %11 = getelementptr inbounds i8, ptr %10, i64 56
  %12 = load ptr, ptr %11, align 8
  invoke void %12(ptr noundef nonnull align 8 dereferenceable(199) %8, i32 noundef %9)
          to label %13 unwind label %14

13:                                               ; preds = %6, %1
  ret void

14:                                               ; preds = %6, %4
  %15 = landingpad { ptr, i32 }
          catch ptr null
  %16 = extractvalue { ptr, i32 } %15, 0
  tail call void @__clang_call_terminate(ptr %16) #29
  unreachable
}